target datalayout = "e-m:e-p270:32:32-p271:32:32-p272:64:64-i64:64-i128:128-f80:128-n8:16:32:64-S128"
target triple = "x86_64-pc-linux-gnu"

%"class.enki::TaskScheduler" = type <{ [3 x ptr], [3 x ptr], i32, [4 x i8], ptr, ptr, %"struct.std::atomic", %"struct.std::atomic", %"struct.std::atomic", i8, %"struct.std::atomic.0", %"struct.std::atomic.0", %"struct.std::atomic.0", i32, [4 x i8], ptr, ptr, i32, i8, [3 x i8], %"struct.enki::TaskSchedulerConfig", %"struct.std::atomic.0", [4 x i8] }>
%"struct.std::atomic" = type { %"struct.std::__atomic_base" }
%"struct.std::__atomic_base" = type { i8 }
%"struct.enki::TaskSchedulerConfig" = type { i32, i32, %"struct.enki::ProfilerCallbacks", %"struct.enki::CustomAllocator" }
%"struct.enki::ProfilerCallbacks" = type { ptr, ptr, ptr, ptr, ptr, ptr, ptr, ptr }
%"struct.enki::CustomAllocator" = type { ptr, ptr, ptr }
%"struct.std::atomic.0" = type { %"struct.std::__atomic_base.1" }
%"struct.std::__atomic_base.1" = type { i32 }
%"struct.enki::ThreadDataStore" = type { ptr, %"struct.std::atomic.2", i32, [48 x i8] }
%"struct.std::atomic.2" = type { i32 }
%"struct.enki::ThreadArgs" = type { i32, ptr }

@_ZL13gtl_threadNum = internal thread_local global i32 -1, align 4

; Function Attrs: noinline noreturn nounwind uwtable
define linkonce_odr hidden void @__clang_call_terminate(ptr noundef %0) #13 comdat {
  %2 = call ptr @__cxa_begin_catch(ptr %0) #14
  call void @_ZSt9terminatev() #21
  unreachable
}

; Function Attrs: mustprogress nounwind uwtable
define linkonce_odr dso_local noundef i32 @_ZStanSt12memory_orderSt23__memory_order_modifier(i32 noundef %0, i32 noundef %1) #5 comdat {
  %3 = alloca i32, align 4
  %4 = alloca i32, align 4
  store i32 %0, ptr %3, align 4, !tbaa !72
  store i32 %1, ptr %4, align 4, !tbaa !195
  %5 = load i32, ptr %3, align 4, !tbaa !72
  %6 = load i32, ptr %4, align 4, !tbaa !195
  %7 = and i32 %5, %6
  ret i32 %7
}

; Function Attrs: alwaysinline mustprogress nounwind uwtable
define linkonce_odr dso_local noundef zeroext i1 @_ZNKSt13__atomic_baseIbE4loadESt12memory_order(ptr noundef nonnull align 1 dereferenceable(1) %0, i32 noundef %1) #9 comdat align 2 personality ptr @__gxx_personality_v0 {
  %3 = alloca ptr, align 8
  %4 = alloca i32, align 4
  %5 = alloca i32, align 4
  %6 = alloca i8, align 1
  store ptr %0, ptr %3, align 8, !tbaa !193
  store i32 %1, ptr %4, align 4, !tbaa !72
  %7 = load ptr, ptr %3, align 8
  call void @llvm.lifetime.start.p0(i64 4, ptr %5) #14
  %8 = load i32, ptr %4, align 4, !tbaa !72
  %9 = invoke noundef i32 @_ZStanSt12memory_orderSt23__memory_order_modifier(i32 noundef %8, i32 noundef 65535)
          to label %10 unwind label %28

10:                                               ; preds = %2
  store i32 %9, ptr %5, align 4, !tbaa !72
  br label %11

11:                                               ; preds = %10
  br label %12

12:                                               ; preds = %11
  br label %13

13:                                               ; preds = %12
  br label %14

14:                                               ; preds = %13
  br label %15

15:                                               ; preds = %14
  br label %16

16:                                               ; preds = %15
  %17 = getelementptr inbounds nuw %"struct.std::__atomic_base", ptr %7, i32 0, i32 0
  %18 = load i32, ptr %4, align 4, !tbaa !72
  switch i32 %18, label %19 [
    i32 1, label %21
    i32 2, label %21
    i32 5, label %23
  ]

19:                                               ; preds = %16
  %20 = load atomic i8, ptr %17 monotonic, align 1
  store i8 %20, ptr %6, align 1
  br label %25

21:                                               ; preds = %16, %16
  %22 = load atomic i8, ptr %17 acquire, align 1
  store i8 %22, ptr %6, align 1
  br label %25

23:                                               ; preds = %16
  %24 = load atomic i8, ptr %17 seq_cst, align 1
  store i8 %24, ptr %6, align 1
  br label %25

25:                                               ; preds = %23, %21, %19
  %26 = load i8, ptr %6, align 1, !tbaa !61, !range !62, !noundef !63
  %27 = trunc i8 %26 to i1
  call void @llvm.lifetime.end.p0(i64 4, ptr %5) #14
  ret i1 %27

28:                                               ; preds = %2
  %29 = landingpad { ptr, i32 }
          catch ptr null
  %30 = extractvalue { ptr, i32 } %29, 0
  call void @__clang_call_terminate(ptr %30) #21
  unreachable
}

; Function Attrs: mustprogress nounwind uwtable
define linkonce_odr dso_local noundef zeroext i1 @_ZNKSt6atomicIbE4loadESt12memory_order(ptr noundef nonnull align 1 dereferenceable(1) %0, i32 noundef %1) #5 comdat align 2 {
  %3 = alloca ptr, align 8
  %4 = alloca i32, align 4
  store ptr %0, ptr %3, align 8, !tbaa !111
  store i32 %1, ptr %4, align 4, !tbaa !72
  %5 = load ptr, ptr %3, align 8
  %6 = getelementptr inbounds nuw %"struct.std::atomic", ptr %5, i32 0, i32 0
  %7 = load i32, ptr %4, align 4, !tbaa !72
  %8 = call noundef zeroext i1 @_ZNKSt13__atomic_baseIbE4loadESt12memory_order(ptr noundef nonnull align 1 dereferenceable(1) %6, i32 noundef %7) #14
  ret i1 %8
}

; Function Attrs: alwaysinline mustprogress nounwind uwtable
define linkonce_odr dso_local noundef i32 @_ZNSt13__atomic_baseIiE9fetch_subEiSt12memory_order(ptr noundef nonnull align 4 dereferenceable(4) %0, i32 noundef %1, i32 noundef %2) #9 comdat align 2 {
  %4 = alloca ptr, align 8
  %5 = alloca i32, align 4
  %6 = alloca i32, align 4
  %7 = alloca i32, align 4
  %8 = alloca i32, align 4
  store ptr %0, ptr %4, align 8, !tbaa !68
  store i32 %1, ptr %5, align 4, !tbaa !11
  store i32 %2, ptr %6, align 4, !tbaa !72
  %9 = load ptr, ptr %4, align 8
  %10 = getelementptr inbounds nuw %"struct.std::__atomic_base.1", ptr %9, i32 0, i32 0
  %11 = load i32, ptr %6, align 4, !tbaa !72
  %12 = load i32, ptr %5, align 4, !tbaa !11
  store i32 %12, ptr %7, align 4, !tbaa !11
  switch i32 %11, label %13 [
    i32 1, label %16
    i32 2, label %16
    i32 3, label %19
    i32 4, label %22
    i32 5, label %25
  ]

13:                                               ; preds = %3
  %14 = load i32, ptr %7, align 4
  %15 = atomicrmw sub ptr %10, i32 %14 monotonic, align 4
  store i32 %15, ptr %8, align 4
  br label %28

16:                                               ; preds = %3, %3
  %17 = load i32, ptr %7, align 4
  %18 = atomicrmw sub ptr %10, i32 %17 acquire, align 4
  store i32 %18, ptr %8, align 4
  br label %28

19:                                               ; preds = %3
  %20 = load i32, ptr %7, align 4
  %21 = atomicrmw sub ptr %10, i32 %20 release, align 4
  store i32 %21, ptr %8, align 4
  br label %28

22:                                               ; preds = %3
  %23 = load i32, ptr %7, align 4
  %24 = atomicrmw sub ptr %10, i32 %23 acq_rel, align 4
  store i32 %24, ptr %8, align 4
  br label %28

25:                                               ; preds = %3
  %26 = load i32, ptr %7, align 4
  %27 = atomicrmw sub ptr %10, i32 %26 seq_cst, align 4
  store i32 %27, ptr %8, align 4
  br label %28

28:                                               ; preds = %25, %22, %19, %16, %13
  %29 = load i32, ptr %8, align 4, !tbaa !11
  ret i32 %29
}

; Function Attrs: mustprogress nounwind uwtable
define internal void @_ZN12_GLOBAL__N_18SpinWaitEj(i32 noundef %0) #5 {
  %2 = alloca i32, align 4
  %3 = alloca i64, align 8
  store i32 %0, ptr %2, align 4, !tbaa !11
  call void @llvm.lifetime.start.p0(i64 8, ptr %3) #14
  %4 = call i64 @llvm.x86.rdtsc()
  %5 = load i32, ptr %2, align 4, !tbaa !11
  %6 = zext i32 %5 to i64
  %7 = add i64 %4, %6
  store i64 %7, ptr %3, align 8, !tbaa !56
  br label %8

8:                                                ; preds = %12, %1
  %9 = call i64 @llvm.x86.rdtsc()
  %10 = load i64, ptr %3, align 8, !tbaa !56
  %11 = icmp ult i64 %9, %10
  br i1 %11, label %12, label %13

12:                                               ; preds = %8
  call void @llvm.x86.sse2.pause()
  br label %8, !llvm.loop !88

13:                                               ; preds = %8
  call void @llvm.lifetime.end.p0(i64 8, ptr %3) #14
  ret void
}

; Function Attrs: mustprogress uwtable
define dso_local noundef zeroext i1 @_ZN4enki13TaskScheduler10TryRunTaskEjRj(ptr noundef nonnull align 8 dereferenceable(220) %0, i32 noundef %1, ptr noundef nonnull align 4 dereferenceable(4) %2) #0 align 2 {
  %4 = alloca i1, align 1
  %5 = alloca ptr, align 8
  %6 = alloca i32, align 4
  %7 = alloca ptr, align 8
  %8 = alloca i32, align 4
  %9 = alloca i32, align 4
  store ptr %0, ptr %5, align 8, !tbaa !4
  store i32 %1, ptr %6, align 4, !tbaa !11
  store ptr %2, ptr %7, align 8, !tbaa !82
  %10 = load ptr, ptr %5, align 8
  call void @llvm.lifetime.start.p0(i64 4, ptr %8) #14
  store i32 0, ptr %8, align 4, !tbaa !11
  br label %11

11:                                               ; preds = %22, %3
  %12 = load i32, ptr %8, align 4, !tbaa !11
  %13 = icmp slt i32 %12, 3
  br i1 %13, label %15, label %14

14:                                               ; preds = %11
  store i32 2, ptr %9, align 4
  br label %25

15:                                               ; preds = %11
  %16 = load i32, ptr %6, align 4, !tbaa !11
  %17 = load i32, ptr %8, align 4, !tbaa !11
  %18 = load ptr, ptr %7, align 8, !tbaa !82
  %19 = call noundef zeroext i1 @_ZN4enki13TaskScheduler10TryRunTaskEjjRj(ptr noundef nonnull align 8 dereferenceable(220) %10, i32 noundef %16, i32 noundef %17, ptr noundef nonnull align 4 dereferenceable(4) %18)
  br i1 %19, label %20, label %21

20:                                               ; preds = %15
  store i1 true, ptr %4, align 1
  store i32 1, ptr %9, align 4
  br label %25

21:                                               ; preds = %15
  br label %22

22:                                               ; preds = %21
  %23 = load i32, ptr %8, align 4, !tbaa !11
  %24 = add nsw i32 %23, 1
  store i32 %24, ptr %8, align 4, !tbaa !11
  br label %11, !llvm.loop !84

25:                                               ; preds = %20, %14
  call void @llvm.lifetime.end.p0(i64 4, ptr %8) #14
  %26 = load i32, ptr %9, align 4
  switch i32 %26, label %30 [
    i32 2, label %27
    i32 1, label %28
  ]

27:                                               ; preds = %25
  store i1 false, ptr %4, align 1
  br label %28

28:                                               ; preds = %27, %25
  %29 = load i1, ptr %4, align 1
  ret i1 %29

30:                                               ; preds = %25
  unreachable
}

; Function Attrs: inlinehint mustprogress nounwind uwtable
define linkonce_odr dso_local noundef zeroext i1 @_ZNK4enki13TaskScheduler15GetIsRunningIntEv(ptr noundef nonnull align 8 dereferenceable(220) %0) #3 comdat align 2 {
  %2 = alloca ptr, align 8
  store ptr %0, ptr %2, align 8, !tbaa !4
  %3 = load ptr, ptr %2, align 8
  %4 = getelementptr inbounds nuw %"class.enki::TaskScheduler", ptr %3, i32 0, i32 6
  %5 = call noundef zeroext i1 @_ZNKSt6atomicIbE4loadESt12memory_order(ptr noundef nonnull align 1 dereferenceable(1) %4, i32 noundef 2) #14
  ret i1 %5
}

; Function Attrs: mustprogress uwtable
define internal void @_ZN12_GLOBAL__N_112SafeCallbackEPFvjEj(ptr noundef %0, i32 noundef %1) #0 {
  %3 = alloca ptr, align 8
  %4 = alloca i32, align 4
  store ptr %0, ptr %3, align 8, !tbaa !58
  store i32 %1, ptr %4, align 4, !tbaa !11
  %5 = load ptr, ptr %3, align 8, !tbaa !58
  %6 = icmp ne ptr %5, null
  br i1 %6, label %7, label %10

7:                                                ; preds = %2
  %8 = load ptr, ptr %3, align 8, !tbaa !58
  %9 = load i32, ptr %4, align 4, !tbaa !11
  call void %8(i32 noundef %9)
  br label %10

10:                                               ; preds = %7, %2
  ret void
}

; Function Attrs: mustprogress nounwind uwtable
define linkonce_odr dso_local void @_ZNSt6atomicIN4enki11ThreadStateEE5storeES1_St12memory_order(ptr noundef nonnull align 4 dereferenceable(4) %0, i32 noundef %1, i32 noundef %2) #5 comdat align 2 {
  %4 = alloca ptr, align 8
  %5 = alloca i32, align 4
  %6 = alloca i32, align 4
  store ptr %0, ptr %4, align 8, !tbaa !70
  store i32 %1, ptr %5, align 4, !tbaa !26
  store i32 %2, ptr %6, align 4, !tbaa !72
  %7 = load ptr, ptr %4, align 8
  %8 = getelementptr inbounds nuw %"struct.std::atomic.2", ptr %7, i32 0, i32 0
  %9 = load i32, ptr %6, align 4, !tbaa !72
  switch i32 %9, label %10 [
    i32 3, label %12
    i32 5, label %14
  ]

10:                                               ; preds = %3
  %11 = load i32, ptr %5, align 4
  store atomic i32 %11, ptr %8 monotonic, align 4
  br label %16

12:                                               ; preds = %3
  %13 = load i32, ptr %5, align 4
  store atomic i32 %13, ptr %8 release, align 4
  br label %16

14:                                               ; preds = %3
  %15 = load i32, ptr %5, align 4
  store atomic i32 %15, ptr %8 seq_cst, align 4
  br label %16

16:                                               ; preds = %14, %12, %10
  ret void
}

; Function Attrs: mustprogress uwtable
define dso_local void @_ZN4enki13TaskScheduler21TaskingThreadFunctionERKNS_10ThreadArgsE(ptr noundef nonnull align 8 dereferenceable(16) %0) #0 align 2 {
  %2 = alloca ptr, align 8
  %3 = alloca i32, align 4
  %4 = alloca ptr, align 8
  %5 = alloca i32, align 4
  %6 = alloca i32, align 4
  %7 = alloca i32, align 4
  store ptr %0, ptr %2, align 8, !tbaa !74
  call void @llvm.lifetime.start.p0(i64 4, ptr %3) #14
  %8 = load ptr, ptr %2, align 8, !tbaa !74
  %9 = getelementptr inbounds nuw %"struct.enki::ThreadArgs", ptr %8, i32 0, i32 0
  %10 = load i32, ptr %9, align 8, !tbaa !76
  store i32 %10, ptr %3, align 4, !tbaa !11
  call void @llvm.lifetime.start.p0(i64 8, ptr %4) #14
  %11 = load ptr, ptr %2, align 8, !tbaa !74
  %12 = getelementptr inbounds nuw %"struct.enki::ThreadArgs", ptr %11, i32 0, i32 1
  %13 = load ptr, ptr %12, align 8, !tbaa !78
  store ptr %13, ptr %4, align 8, !tbaa !4
  %14 = load i32, ptr %3, align 4, !tbaa !11
  %15 = call align 4 ptr @llvm.threadlocal.address.p0(ptr align 4 @_ZL13gtl_threadNum)
  store i32 %14, ptr %15, align 4, !tbaa !11
  %16 = load ptr, ptr %4, align 8, !tbaa !4
  %17 = getelementptr inbounds nuw %"class.enki::TaskScheduler", ptr %16, i32 0, i32 4
  %18 = load ptr, ptr %17, align 8, !tbaa !13
  %19 = load i32, ptr %3, align 4, !tbaa !11
  %20 = zext i32 %19 to i64
  %21 = getelementptr inbounds nuw %"struct.enki::ThreadDataStore", ptr %18, i64 %20
  %22 = getelementptr inbounds nuw %"struct.enki::ThreadDataStore", ptr %21, i32 0, i32 1
  call void @_ZNSt6atomicIN4enki11ThreadStateEE5storeES1_St12memory_order(ptr noundef nonnull align 4 dereferenceable(4) %22, i32 noundef 2, i32 noundef 3) #14
  %23 = load ptr, ptr %4, align 8, !tbaa !4
  %24 = getelementptr inbounds nuw %"class.enki::TaskScheduler", ptr %23, i32 0, i32 20
  %25 = getelementptr inbounds nuw %"struct.enki::TaskSchedulerConfig", ptr %24, i32 0, i32 2
  %26 = getelementptr inbounds nuw %"struct.enki::ProfilerCallbacks", ptr %25, i32 0, i32 0
  %27 = load ptr, ptr %26, align 8, !tbaa !79
  %28 = load i32, ptr %3, align 4, !tbaa !11
  call void @_ZN12_GLOBAL__N_112SafeCallbackEPFvjEj(ptr noundef %27, i32 noundef %28)
  call void @llvm.lifetime.start.p0(i64 4, ptr %5) #14
  store i32 0, ptr %5, align 4, !tbaa !11
  call void @llvm.lifetime.start.p0(i64 4, ptr %6) #14
  %29 = load i32, ptr %3, align 4, !tbaa !11
  %30 = add i32 %29, 1
  store i32 %30, ptr %6, align 4, !tbaa !11
  br label %31

31:                                               ; preds = %52, %1
  %32 = load ptr, ptr %4, align 8, !tbaa !4
  %33 = call noundef zeroext i1 @_ZNK4enki13TaskScheduler15GetIsRunningIntEv(ptr noundef nonnull align 8 dereferenceable(220) %32)
  br i1 %33, label %34, label %53

34:                                               ; preds = %31
  %35 = load ptr, ptr %4, align 8, !tbaa !4
  %36 = load i32, ptr %3, align 4, !tbaa !11
  %37 = call noundef zeroext i1 @_ZN4enki13TaskScheduler10TryRunTaskEjRj(ptr noundef nonnull align 8 dereferenceable(220) %35, i32 noundef %36, ptr noundef nonnull align 4 dereferenceable(4) %6)
  br i1 %37, label %51, label %38

38:                                               ; preds = %34
  %39 = load i32, ptr %5, align 4, !tbaa !11
  %40 = add i32 %39, 1
  store i32 %40, ptr %5, align 4, !tbaa !11
  %41 = load i32, ptr %5, align 4, !tbaa !11
  %42 = icmp ugt i32 %41, 10
  br i1 %42, label %43, label %46

43:                                               ; preds = %38
  %44 = load ptr, ptr %4, align 8, !tbaa !4
  %45 = load i32, ptr %3, align 4, !tbaa !11
  call void @_ZN4enki13TaskScheduler15WaitForNewTasksEj(ptr noundef nonnull align 8 dereferenceable(220) %44, i32 noundef %45)
  br label %50

46:                                               ; preds = %38
  call void @llvm.lifetime.start.p0(i64 4, ptr %7) #14
  %47 = load i32, ptr %5, align 4, !tbaa !11
  %48 = mul i32 %47, 100
  store i32 %48, ptr %7, align 4, !tbaa !11
  %49 = load i32, ptr %7, align 4, !tbaa !11
  call void @_ZN12_GLOBAL__N_18SpinWaitEj(i32 noundef %49)
  call void @llvm.lifetime.end.p0(i64 4, ptr %7) #14
  br label %50

50:                                               ; preds = %46, %43
  br label %52

51:                                               ; preds = %34
  store i32 0, ptr %5, align 4, !tbaa !11
  br label %52

52:                                               ; preds = %51, %50
  br label %31, !llvm.loop !80

53:                                               ; preds = %31
  %54 = load ptr, ptr %4, align 8, !tbaa !4
  %55 = getelementptr inbounds nuw %"class.enki::TaskScheduler", ptr %54, i32 0, i32 10
  %56 = call noundef i32 @_ZNSt13__atomic_baseIiE9fetch_subEiSt12memory_order(ptr noundef nonnull align 4 dereferenceable(4) %55, i32 noundef 1, i32 noundef 3) #14
  %57 = load ptr, ptr %4, align 8, !tbaa !4
  %58 = getelementptr inbounds nuw %"class.enki::TaskScheduler", ptr %57, i32 0, i32 4
  %59 = load ptr, ptr %58, align 8, !tbaa !13
  %60 = load i32, ptr %3, align 4, !tbaa !11
  %61 = zext i32 %60 to i64
  %62 = getelementptr inbounds nuw %"struct.enki::ThreadDataStore", ptr %59, i64 %61
  %63 = getelementptr inbounds nuw %"struct.enki::ThreadDataStore", ptr %62, i32 0, i32 1
  call void @_ZNSt6atomicIN4enki11ThreadStateEE5storeES1_St12memory_order(ptr noundef nonnull align 4 dereferenceable(4) %63, i32 noundef 9, i32 noundef 3) #14
  %64 = load ptr, ptr %4, align 8, !tbaa !4
  %65 = getelementptr inbounds nuw %"class.enki::TaskScheduler", ptr %64, i32 0, i32 20
  %66 = getelementptr inbounds nuw %"struct.enki::TaskSchedulerConfig", ptr %65, i32 0, i32 2
  %67 = getelementptr inbounds nuw %"struct.enki::ProfilerCallbacks", ptr %66, i32 0, i32 1
  %68 = load ptr, ptr %67, align 8, !tbaa !81
  %69 = load i32, ptr %3, align 4, !tbaa !11
  call void @_ZN12_GLOBAL__N_112SafeCallbackEPFvjEj(ptr noundef %68, i32 noundef %69)
  call void @llvm.lifetime.end.p0(i64 4, ptr %6) #14
  call void @llvm.lifetime.end.p0(i64 4, ptr %5) #14
  call void @llvm.lifetime.end.p0(i64 8, ptr %4) #14
  call void @llvm.lifetime.end.p0(i64 4, ptr %3) #14
  ret void
}