; Function Attrs: mustprogress uwtable
define dso_local void @_ZN4enki13TaskScheduler21TaskingThreadFunctionERKNS_10ThreadArgsE(ptr noundef nonnull readonly align 8 captures(none) dereferenceable(16) %0) #0 align 2 personality ptr @__gxx_personality_v0 {
  %2 = alloca i32, align 4
  %3 = load i32, ptr %0, align 8, !tbaa !62
  %4 = getelementptr inbounds nuw i8, ptr %0, i64 8
  %5 = load ptr, ptr %4, align 8, !tbaa !65
  %6 = tail call align 4 ptr @llvm.threadlocal.address.p0(ptr align 4 @_ZL13gtl_threadNum)
  store i32 %3, ptr %6, align 4, !tbaa !27
  %7 = getelementptr inbounds nuw i8, ptr %5, i64 56
  %8 = load ptr, ptr %7, align 8, !tbaa !4
  %9 = zext i32 %3 to i64
  %10 = getelementptr inbounds nuw %"struct.enki::ThreadDataStore", ptr %8, i64 %9, i32 1
  store atomic i32 2, ptr %10 release, align 4
  %11 = getelementptr inbounds nuw i8, ptr %5, i64 128
  %12 = load ptr, ptr %11, align 8, !tbaa !66
  %.not.i = icmp eq ptr %12, null
  br i1 %.not.i, label %_ZN12_GLOBAL__N_112SafeCallbackEPFvjEj.exit, label %13

13:                                               ; preds = %1
  tail call void %12(i32 noundef %3)
  br label %_ZN12_GLOBAL__N_112SafeCallbackEPFvjEj.exit

_ZN12_GLOBAL__N_112SafeCallbackEPFvjEj.exit:      ; preds = %1, %13
  call void @llvm.lifetime.start.p0(i64 4, ptr nonnull %2) #26
  %14 = add i32 %3, 1
  store i32 %14, ptr %2, align 4, !tbaa !27
  %15 = getelementptr inbounds nuw i8, ptr %5, i64 72
  %16 = load atomic i8, ptr %15 acquire, align 1
  %17 = trunc i8 %16 to i1
  br i1 %17, label %.preheader, label %._crit_edge

.preheader:                                       ; preds = %_ZN12_GLOBAL__N_112SafeCallbackEPFvjEj.exit, %_ZN12_GLOBAL__N_18SpinWaitEj.exit
  %.025 = phi i32 [ %.1, %_ZN12_GLOBAL__N_18SpinWaitEj.exit ], [ 0, %_ZN12_GLOBAL__N_112SafeCallbackEPFvjEj.exit ]
  br label %18

18:                                               ; preds = %.preheader, %18
  %.079.i = phi i32 [ %20, %18 ], [ 0, %.preheader ]
  %19 = call noundef zeroext i1 @_ZN4enki13TaskScheduler10TryRunTaskEjjRj(ptr noundef nonnull align 8 dereferenceable(220) %5, i32 noundef %3, i32 noundef %.079.i, ptr noundef nonnull align 4 dereferenceable(4) %2)
  %20 = add nuw nsw i32 %.079.i, 1
  %exitcond.not.i = icmp eq i32 %20, 3
  %or.cond.i = select i1 %19, i1 true, i1 %exitcond.not.i
  br i1 %or.cond.i, label %_ZN4enki13TaskScheduler10TryRunTaskEjRj.exit, label %18, !llvm.loop !67

_ZN4enki13TaskScheduler10TryRunTaskEjRj.exit:     ; preds = %18
  br i1 %19, label %_ZN12_GLOBAL__N_18SpinWaitEj.exit, label %21

21:                                               ; preds = %_ZN4enki13TaskScheduler10TryRunTaskEjRj.exit
  %22 = add i32 %.025, 1
  %23 = icmp ugt i32 %22, 10
  br i1 %23, label %24, label %25

24:                                               ; preds = %21
  tail call void @_ZN4enki13TaskScheduler15WaitForNewTasksEj(ptr noundef nonnull align 8 dereferenceable(220) %5, i32 noundef %3)
  br label %_ZN12_GLOBAL__N_18SpinWaitEj.exit

25:                                               ; preds = %21
  %26 = mul nuw nsw i32 %22, 100
  %27 = tail call i64 @llvm.x86.rdtsc()
  %28 = zext nneg i32 %26 to i64
  %29 = add i64 %27, %28
  %30 = tail call i64 @llvm.x86.rdtsc()
  %31 = icmp ult i64 %30, %29
  br i1 %31, label %.lr.ph.i, label %_ZN12_GLOBAL__N_18SpinWaitEj.exit

.lr.ph.i:                                         ; preds = %25, %.lr.ph.i
  tail call void @llvm.x86.sse2.pause()
  %32 = tail call i64 @llvm.x86.rdtsc()
  %33 = icmp ult i64 %32, %29
  br i1 %33, label %.lr.ph.i, label %_ZN12_GLOBAL__N_18SpinWaitEj.exit, !llvm.loop !68

_ZN12_GLOBAL__N_18SpinWaitEj.exit:                ; preds = %.lr.ph.i, %25, %_ZN4enki13TaskScheduler10TryRunTaskEjRj.exit, %24
  %.1 = phi i32 [ %22, %24 ], [ 0, %_ZN4enki13TaskScheduler10TryRunTaskEjRj.exit ], [ %22, %25 ], [ %22, %.lr.ph.i ]
  %34 = load atomic i8, ptr %15 acquire, align 1
  %35 = trunc i8 %34 to i1
  br i1 %35, label %.preheader, label %._crit_edge, !llvm.loop !69

._crit_edge:                                      ; preds = %_ZN12_GLOBAL__N_18SpinWaitEj.exit, %_ZN12_GLOBAL__N_112SafeCallbackEPFvjEj.exit
  %36 = getelementptr inbounds nuw i8, ptr %5, i64 76
  %37 = atomicrmw sub ptr %36, i32 1 release, align 4
  %38 = load ptr, ptr %7, align 8, !tbaa !4
  %39 = getelementptr inbounds nuw %"struct.enki::ThreadDataStore", ptr %38, i64 %9, i32 1
  store atomic i32 9, ptr %39 release, align 4
  %40 = getelementptr inbounds nuw i8, ptr %5, i64 136
  %41 = load ptr, ptr %40, align 8, !tbaa !70
  %.not.i23 = icmp eq ptr %41, null
  br i1 %.not.i23, label %_ZN12_GLOBAL__N_112SafeCallbackEPFvjEj.exit24, label %42

42:                                               ; preds = %._crit_edge
  tail call void %41(i32 noundef %3)
  br label %_ZN12_GLOBAL__N_112SafeCallbackEPFvjEj.exit24

_ZN12_GLOBAL__N_112SafeCallbackEPFvjEj.exit24:    ; preds = %._crit_edge, %42
  call void @llvm.lifetime.end.p0(i64 4, ptr nonnull %2) #26
  ret void
}